target datalayout = "e-m:e-p270:32:32-p271:32:32-p272:64:64-i64:64-i128:128-f80:128-n8:16:32:64-S128"
target triple = "x86_64-pc-linux-gnu"

%struct.lxb_html_tree = type { ptr, ptr, ptr, ptr, ptr, ptr, ptr, %struct.lxb_html_tree_pending_table_t, ptr, i8, i8, i8, i8, i8, i8, ptr, ptr, ptr, i32, i64 }
%struct.lxb_html_tree_pending_table_t = type { ptr, i8 }

; Function Attrs: inlinehint nounwind uwtable
define internal zeroext i1 @lxb_html_tree_insertion_mode_in_body_noembed(ptr noundef %0, ptr noundef %1) #3 {
  %3 = alloca i1, align 1
  %4 = alloca ptr, align 8
  %5 = alloca ptr, align 8
  %6 = alloca ptr, align 8
  %7 = alloca i32, align 4
  store ptr %0, ptr %4, align 8, !tbaa !4
  store ptr %1, ptr %5, align 8, !tbaa !9
  call void @llvm.lifetime.start.p0(i64 8, ptr %6) #5
  %8 = load ptr, ptr %4, align 8, !tbaa !4
  %9 = load ptr, ptr %5, align 8, !tbaa !9
  %10 = call ptr @lxb_html_tree_generic_rawtext_parsing(ptr noundef %8, ptr noundef %9)
  store ptr %10, ptr %6, align 8, !tbaa !40
  %11 = load ptr, ptr %6, align 8, !tbaa !40
  %12 = icmp eq ptr %11, null
  br i1 %12, label %13, label %18

13:                                               ; preds = %2
  %14 = load ptr, ptr %4, align 8, !tbaa !4
  %15 = getelementptr inbounds nuw %struct.lxb_html_tree, ptr %14, i32 0, i32 18
  store i32 2, ptr %15, align 8, !tbaa !25
  %16 = load ptr, ptr %4, align 8, !tbaa !4
  %17 = call zeroext i1 @lxb_html_tree_process_abort(ptr noundef %16)
  store i1 %17, ptr %3, align 1
  store i32 1, ptr %7, align 4
  br label %19

18:                                               ; preds = %2
  store i1 true, ptr %3, align 1
  store i32 1, ptr %7, align 4
  br label %19

19:                                               ; preds = %18, %13
  call void @llvm.lifetime.end.p0(i64 8, ptr %6) #5
  %20 = load i1, ptr %3, align 1
  ret i1 %20
}