; Function Attrs: inlinehint nounwind uwtable
define internal fastcc zeroext i1 @lxb_html_tree_insertion_mode_in_body_noembed(ptr noundef %0, ptr noundef %1) unnamed_addr #3 {
  %3 = tail call ptr @lxb_html_tree_generic_rawtext_parsing(ptr noundef %0, ptr noundef %1) #6
  %4 = icmp eq ptr %3, null
  br i1 %4, label %5, label %8

5:                                                ; preds = %2
  %6 = getelementptr inbounds nuw i8, ptr %0, i64 112
  store i32 2, ptr %6, align 8, !tbaa !22
  %7 = tail call zeroext i1 @lxb_html_tree_process_abort(ptr noundef %0) #6
  br label %8

8:                                                ; preds = %2, %5
  %.0 = phi i1 [ %7, %5 ], [ true, %2 ]
  ret i1 %.0
}